target datalayout = "e-m:e-p270:32:32-p271:32:32-p272:64:64-i64:64-i128:128-f80:128-n8:16:32:64-S128"
target triple = "x86_64-pc-linux-gnu"

%struct.Vec_Int_t_ = type { i32, i32, ptr }
%struct.Vec_Str_t_ = type { i32, i32, ptr }
%struct.Vec_Ptr_t_ = type { i32, i32, ptr }
%struct.Prs_Ntk_t_ = type { i32, i8, ptr, ptr, ptr, %struct.Vec_Int_t_, %struct.Vec_Int_t_, %struct.Vec_Int_t_, %struct.Vec_Int_t_, %struct.Vec_Int_t_, %struct.Vec_Int_t_, %struct.Vec_Int_t_, %struct.Vec_Int_t_, %struct.Vec_Int_t_, %struct.Vec_Int_t_, %struct.Vec_Int_t_, %struct.Vec_Int_t_, %struct.Vec_Int_t_ }
%struct.Cba_Ntk_t_ = type { ptr, i32, i32, i32, i8, %struct.Vec_Int_t_, %struct.Vec_Int_t_, %struct.Vec_Int_t_, %struct.Vec_Int_t_, %struct.Vec_Str_t_, %struct.Vec_Int_t_, %struct.Vec_Int_t_, %struct.Vec_Int_t_, %struct.Vec_Int_t_, %struct.Vec_Int_t_, %struct.Vec_Int_t_, %struct.Vec_Int_t_, %struct.Vec_Int_t_, %struct.Vec_Int_t_, %struct.Vec_Int_t_, %struct.Vec_Int_t_, %struct.Vec_Int_t_, %struct.Vec_Int_t_, %struct.Vec_Int_t_, %struct.Vec_Int_t_, %struct.Vec_Int_t_, %struct.Vec_Int_t_, %struct.Vec_Int_t_, ptr, %struct.Vec_Int_t_, %struct.Vec_Int_t_ }
%struct.Cba_Man_t_ = type { ptr, ptr, ptr, ptr, ptr, ptr, %struct.Vec_Int_t_, %struct.Vec_Int_t_, %struct.Vec_Int_t_, %struct.Vec_Int_t_, [90 x ptr], [90 x i32], [90 x i32], i32, %struct.Vec_Ptr_t_, i32, %struct.Vec_Str_t_, %struct.Vec_Str_t_, ptr }

@.str.16 = private unnamed_addr constant [42 x i8] c"Network \22%s\22: Signal \22%s\22 is not driven.\0A\00", align 1

; Function Attrs: nounwind uwtable
define internal i32 @Vec_IntGetEntry(ptr noundef %0, i32 noundef %1) #0 {
  %3 = alloca ptr, align 8
  %4 = alloca i32, align 4
  store ptr %0, ptr %3, align 8
  store i32 %1, ptr %4, align 4
  %5 = load ptr, ptr %3, align 8
  %6 = load i32, ptr %4, align 4
  %7 = add nsw i32 %6, 1
  call void @Vec_IntFillExtra(ptr noundef %5, i32 noundef %7, i32 noundef 0)
  %8 = load ptr, ptr %3, align 8
  %9 = load i32, ptr %4, align 4
  %10 = call i32 @Vec_IntEntry(ptr noundef %8, i32 noundef %9)
  ret i32 %10
}

; Function Attrs: nounwind uwtable
define internal ptr @Cba_ManStr(ptr noundef %0, i32 noundef %1) #0 {
  %3 = alloca ptr, align 8
  %4 = alloca i32, align 4
  store ptr %0, ptr %3, align 8
  store i32 %1, ptr %4, align 4
  %5 = load ptr, ptr %3, align 8
  %6 = getelementptr inbounds %struct.Cba_Man_t_, ptr %5, i32 0, i32 2
  %7 = load ptr, ptr %6, align 8
  %8 = load i32, ptr %4, align 4
  %9 = call ptr @Abc_NamStr(ptr noundef %7, i32 noundef %8)
  ret ptr %9
}

; Function Attrs: nounwind uwtable
define internal i32 @Cba_ManGetMap(ptr noundef %0, i32 noundef %1) #0 {
  %3 = alloca ptr, align 8
  %4 = alloca i32, align 4
  store ptr %0, ptr %3, align 8
  store i32 %1, ptr %4, align 4
  %5 = load ptr, ptr %3, align 8
  %6 = getelementptr inbounds %struct.Cba_Man_t_, ptr %5, i32 0, i32 6
  %7 = load i32, ptr %4, align 4
  %8 = call i32 @Vec_IntGetEntry(ptr noundef %6, i32 noundef %7)
  ret i32 %8
}

; Function Attrs: nounwind uwtable
define internal i32 @Vec_IntEntry(ptr noundef %0, i32 noundef %1) #0 {
  %3 = alloca ptr, align 8
  %4 = alloca i32, align 4
  store ptr %0, ptr %3, align 8
  store i32 %1, ptr %4, align 4
  %5 = load ptr, ptr %3, align 8
  %6 = getelementptr inbounds %struct.Vec_Int_t_, ptr %5, i32 0, i32 2
  %7 = load ptr, ptr %6, align 8
  %8 = load i32, ptr %4, align 4
  %9 = sext i32 %8 to i64
  %10 = getelementptr inbounds i32, ptr %7, i64 %9
  %11 = load i32, ptr %10, align 4
  ret i32 %11
}

; Function Attrs: nounwind uwtable
define internal ptr @Cba_NtkStr(ptr noundef %0, i32 noundef %1) #0 {
  %3 = alloca ptr, align 8
  %4 = alloca i32, align 4
  store ptr %0, ptr %3, align 8
  store i32 %1, ptr %4, align 4
  %5 = load ptr, ptr %3, align 8
  %6 = getelementptr inbounds %struct.Cba_Ntk_t_, ptr %5, i32 0, i32 0
  %7 = load ptr, ptr %6, align 8
  %8 = load i32, ptr %4, align 4
  %9 = call ptr @Cba_ManStr(ptr noundef %7, i32 noundef %8)
  ret ptr %9
}

; Function Attrs: nounwind uwtable
define internal ptr @Cba_NtkName(ptr noundef %0) #0 {
  %2 = alloca ptr, align 8
  store ptr %0, ptr %2, align 8
  %3 = load ptr, ptr %2, align 8
  %4 = load ptr, ptr %2, align 8
  %5 = getelementptr inbounds %struct.Cba_Ntk_t_, ptr %4, i32 0, i32 2
  %6 = load i32, ptr %5, align 4
  %7 = call ptr @Cba_NtkStr(ptr noundef %3, i32 noundef %6)
  ret ptr %7
}

; Function Attrs: nounwind uwtable
define internal i32 @Cba_NtkGetMap(ptr noundef %0, i32 noundef %1) #0 {
  %3 = alloca ptr, align 8
  %4 = alloca i32, align 4
  store ptr %0, ptr %3, align 8
  store i32 %1, ptr %4, align 4
  %5 = load ptr, ptr %3, align 8
  %6 = getelementptr inbounds %struct.Cba_Ntk_t_, ptr %5, i32 0, i32 0
  %7 = load ptr, ptr %6, align 8
  %8 = load i32, ptr %4, align 4
  %9 = call i32 @Cba_ManGetMap(ptr noundef %7, i32 noundef %8)
  ret i32 %9
}

; Function Attrs: nounwind uwtable
define internal i32 @Prs_SliceRange(ptr noundef %0, i32 noundef %1) #0 {
  %3 = alloca ptr, align 8
  %4 = alloca i32, align 4
  store ptr %0, ptr %3, align 8
  store i32 %1, ptr %4, align 4
  %5 = load ptr, ptr %3, align 8
  %6 = getelementptr inbounds %struct.Prs_Ntk_t_, ptr %5, i32 0, i32 14
  %7 = load i32, ptr %4, align 4
  %8 = add nsw i32 %7, 1
  %9 = call i32 @Vec_IntEntry(ptr noundef %6, i32 noundef %8)
  ret i32 %9
}

; Function Attrs: nounwind uwtable
define internal i32 @Prs_SliceName(ptr noundef %0, i32 noundef %1) #0 {
  %3 = alloca ptr, align 8
  %4 = alloca i32, align 4
  store ptr %0, ptr %3, align 8
  store i32 %1, ptr %4, align 4
  %5 = load ptr, ptr %3, align 8
  %6 = getelementptr inbounds %struct.Prs_Ntk_t_, ptr %5, i32 0, i32 14
  %7 = load i32, ptr %4, align 4
  %8 = call i32 @Vec_IntEntry(ptr noundef %6, i32 noundef %7)
  ret i32 %8
}

; Function Attrs: nounwind uwtable
define internal i32 @Cba_FonFromConst(i32 noundef %0) #0 {
  %2 = alloca i32, align 4
  store i32 %0, ptr %2, align 4
  %3 = load i32, ptr %2, align 4
  %4 = sub nsw i32 0, %3
  %5 = sub nsw i32 %4, 1
  ret i32 %5
}

; Function Attrs: nounwind uwtable
define i32 @Prs_CreateVerilogFindFon(ptr noundef %0, i32 noundef %1) #0 {
  %3 = alloca i32, align 4
  %4 = alloca ptr, align 8
  %5 = alloca i32, align 4
  %6 = alloca i32, align 4
  store ptr %0, ptr %4, align 8
  store i32 %1, ptr %5, align 4
  %7 = load ptr, ptr %4, align 8
  %8 = load i32, ptr %5, align 4
  %9 = call i32 @Cba_NtkGetMap(ptr noundef %7, i32 noundef %8)
  store i32 %9, ptr %6, align 4
  %10 = load i32, ptr %6, align 4
  %11 = icmp ne i32 %10, 0
  br i1 %11, label %12, label %14

12:                                               ; preds = %2
  %13 = load i32, ptr %6, align 4
  store i32 %13, ptr %3, align 4
  br label %21

14:                                               ; preds = %2
  %15 = load ptr, ptr %4, align 8
  %16 = call ptr @Cba_NtkName(ptr noundef %15)
  %17 = load ptr, ptr %4, align 8
  %18 = load i32, ptr %5, align 4
  %19 = call ptr @Cba_NtkStr(ptr noundef %17, i32 noundef %18)
  %20 = call i32 (ptr, ...) @printf(ptr noundef @.str.16, ptr noundef %16, ptr noundef %19)
  store i32 0, ptr %3, align 4
  br label %21

21:                                               ; preds = %14, %12
  %22 = load i32, ptr %3, align 4
  ret i32 %22
}

; Function Attrs: nounwind uwtable
define internal ptr @Prs_NtkStr(ptr noundef %0, i32 noundef %1) #0 {
  %3 = alloca ptr, align 8
  %4 = alloca i32, align 4
  store ptr %0, ptr %3, align 8
  store i32 %1, ptr %4, align 4
  %5 = load ptr, ptr %3, align 8
  %6 = getelementptr inbounds %struct.Prs_Ntk_t_, ptr %5, i32 0, i32 2
  %7 = load ptr, ptr %6, align 8
  %8 = load i32, ptr %4, align 4
  %9 = call ptr @Abc_NamStr(ptr noundef %7, i32 noundef %8)
  ret ptr %9
}

; Function Attrs: nounwind uwtable
define internal i32 @Abc_Lit2Att2(i32 noundef %0) #0 {
  %2 = alloca i32, align 4
  store i32 %0, ptr %2, align 4
  %3 = load i32, ptr %2, align 4
  %4 = and i32 %3, 3
  ret i32 %4
}

; Function Attrs: nounwind uwtable
define internal i32 @Abc_Lit2Var2(i32 noundef %0) #0 {
  %2 = alloca i32, align 4
  store i32 %0, ptr %2, align 4
  %3 = load i32, ptr %2, align 4
  %4 = ashr i32 %3, 2
  ret i32 %4
}

; Function Attrs: nounwind uwtable
define i32 @Prs_CreateSignalIn(ptr noundef %0, ptr noundef %1, i32 noundef %2) #0 {
  %4 = alloca i32, align 4
  %5 = alloca ptr, align 8
  %6 = alloca ptr, align 8
  %7 = alloca i32, align 4
  %8 = alloca i32, align 4
  %9 = alloca i32, align 4
  %10 = alloca i32, align 4
  store ptr %0, ptr %5, align 8
  store ptr %1, ptr %6, align 8
  store i32 %2, ptr %7, align 4
  %11 = load i32, ptr %7, align 4
  %12 = call i32 @Abc_Lit2Var2(i32 noundef %11)
  store i32 %12, ptr %9, align 4
  %13 = load i32, ptr %7, align 4
  %14 = call i32 @Abc_Lit2Att2(i32 noundef %13)
  store i32 %14, ptr %10, align 4
  %15 = load i32, ptr %7, align 4
  %16 = icmp ne i32 %15, 0
  br i1 %16, label %18, label %17

17:                                               ; preds = %3
  store i32 0, ptr %4, align 4
  br label %64

18:                                               ; preds = %3
  %19 = load i32, ptr %10, align 4
  %20 = icmp eq i32 %19, 0
  br i1 %20, label %21, label %29

21:                                               ; preds = %18
  %22 = load ptr, ptr %5, align 8
  %23 = load ptr, ptr %5, align 8
  %24 = load ptr, ptr %6, align 8
  %25 = load i32, ptr %9, align 4
  %26 = call ptr @Prs_NtkStr(ptr noundef %24, i32 noundef %25)
  %27 = call i32 (ptr, ptr, ...) @Cba_NtkNewStrId(ptr noundef %23, ptr noundef %26)
  %28 = call i32 @Prs_CreateVerilogFindFon(ptr noundef %22, i32 noundef %27)
  store i32 %28, ptr %4, align 4
  br label %64

29:                                               ; preds = %18
  %30 = load i32, ptr %10, align 4
  %31 = icmp eq i32 %30, 2
  br i1 %31, label %32, label %35

32:                                               ; preds = %29
  %33 = load i32, ptr %9, align 4
  %34 = call i32 @Cba_FonFromConst(i32 noundef %33)
  store i32 %34, ptr %4, align 4
  br label %64

35:                                               ; preds = %29
  %36 = load i32, ptr %10, align 4
  %37 = icmp eq i32 %36, 1
  br i1 %37, label %38, label %59

38:                                               ; preds = %35
  %39 = load ptr, ptr %5, align 8
  %40 = load ptr, ptr %5, align 8
  %41 = load ptr, ptr %6, align 8
  %42 = load ptr, ptr %6, align 8
  %43 = load i32, ptr %9, align 4
  %44 = call i32 @Prs_SliceName(ptr noundef %42, i32 noundef %43)
  %45 = call ptr @Prs_NtkStr(ptr noundef %41, i32 noundef %44)
  %46 = call i32 (ptr, ptr, ...) @Cba_NtkNewStrId(ptr noundef %40, ptr noundef %45)
  %47 = call i32 @Prs_CreateVerilogFindFon(ptr noundef %39, i32 noundef %46)
  store i32 %47, ptr %8, align 4
  %48 = load i32, ptr %8, align 4
  %49 = icmp ne i32 %48, 0
  br i1 %49, label %51, label %50

50:                                               ; preds = %38
  store i32 0, ptr %4, align 4
  br label %64

51:                                               ; preds = %38
  %52 = load ptr, ptr %5, align 8
  %53 = load i32, ptr %8, align 4
  %54 = load ptr, ptr %6, align 8
  %55 = load ptr, ptr %6, align 8
  %56 = load i32, ptr %9, align 4
  %57 = call i32 @Prs_SliceRange(ptr noundef %55, i32 noundef %56)
  %58 = call i32 @Prs_CreateSlice(ptr noundef %52, i32 noundef %53, ptr noundef %54, i32 noundef %57)
  store i32 %58, ptr %4, align 4
  br label %64

59:                                               ; preds = %35
  %60 = load ptr, ptr %5, align 8
  %61 = load ptr, ptr %6, align 8
  %62 = load i32, ptr %9, align 4
  %63 = call i32 @Prs_CreateCatIn(ptr noundef %60, ptr noundef %61, i32 noundef %62)
  store i32 %63, ptr %4, align 4
  br label %64

64:                                               ; preds = %59, %51, %50, %32, %21, %17
  %65 = load i32, ptr %4, align 4
  ret i32 %65
}