; Function Attrs: nounwind uwtable
define i32 @Prs_CreateSignalIn(ptr noundef %0, ptr noundef readonly captures(none) %1, i32 noundef %2) local_unnamed_addr #0 {
  %4 = ashr i32 %2, 2
  %.not = icmp eq i32 %2, 0
  br i1 %.not, label %Prs_CreateVerilogFindFon.exit, label %5

5:                                                ; preds = %3
  %6 = and i32 %2, 3
  switch i32 %6, label %default.unreachable [
    i32 0, label %7
    i32 2, label %24
    i32 1, label %26
    i32 3, label %50
  ]

7:                                                ; preds = %5
  %8 = getelementptr i8, ptr %1, i64 8
  %.val = load ptr, ptr %8, align 8
  %9 = tail call ptr @Abc_NamStr(ptr noundef %.val, i32 noundef %4) #28
  %10 = tail call i32 (ptr, ptr, ...) @Cba_NtkNewStrId(ptr noundef %0, ptr noundef %9)
  %.val.i = load ptr, ptr %0, align 8
  %11 = getelementptr inbounds nuw i8, ptr %.val.i, i64 48
  %12 = add nsw i32 %10, 1
  tail call fastcc void @Vec_IntFillExtra(ptr noundef nonnull %11, i32 noundef %12)
  %13 = getelementptr i8, ptr %.val.i, i64 56
  %.val.i.i.i.i = load ptr, ptr %13, align 8
  %14 = sext i32 %10 to i64
  %15 = getelementptr inbounds i32, ptr %.val.i.i.i.i, i64 %14
  %16 = load i32, ptr %15, align 4
  %.not.i = icmp eq i32 %16, 0
  br i1 %.not.i, label %17, label %Prs_CreateVerilogFindFon.exit

17:                                               ; preds = %7
  %.val9.i = load ptr, ptr %0, align 8
  %18 = getelementptr i8, ptr %0, i64 12
  %.val10.i = load i32, ptr %18, align 4
  %19 = getelementptr i8, ptr %.val9.i, i64 16
  %.val9.val.i = load ptr, ptr %19, align 8
  %20 = tail call ptr @Abc_NamStr(ptr noundef %.val9.val.i, i32 noundef %.val10.i) #28
  %.val8.i = load ptr, ptr %0, align 8
  %21 = getelementptr i8, ptr %.val8.i, i64 16
  %.val8.val.i = load ptr, ptr %21, align 8
  %22 = tail call ptr @Abc_NamStr(ptr noundef %.val8.val.i, i32 noundef %10) #28
  %23 = tail call i32 (ptr, ...) @printf(ptr noundef nonnull dereferenceable(1) @.str.16, ptr noundef %20, ptr noundef %22)
  br label %Prs_CreateVerilogFindFon.exit

24:                                               ; preds = %5
  %25 = xor i32 %4, -1
  br label %Prs_CreateVerilogFindFon.exit

26:                                               ; preds = %5
  %27 = getelementptr i8, ptr %1, i64 184
  %.val29 = load ptr, ptr %27, align 8
  %28 = sext i32 %4 to i64
  %29 = getelementptr inbounds i32, ptr %.val29, i64 %28
  %30 = load i32, ptr %29, align 4
  %31 = getelementptr i8, ptr %1, i64 8
  %.val28 = load ptr, ptr %31, align 8
  %32 = tail call ptr @Abc_NamStr(ptr noundef %.val28, i32 noundef %30) #28
  %33 = tail call i32 (ptr, ptr, ...) @Cba_NtkNewStrId(ptr noundef %0, ptr noundef %32)
  %.val.i31 = load ptr, ptr %0, align 8
  %34 = getelementptr inbounds nuw i8, ptr %.val.i31, i64 48
  %35 = add nsw i32 %33, 1
  tail call fastcc void @Vec_IntFillExtra(ptr noundef nonnull %34, i32 noundef %35)
  %36 = getelementptr i8, ptr %.val.i31, i64 56
  %.val.i.i.i.i32 = load ptr, ptr %36, align 8
  %37 = sext i32 %33 to i64
  %38 = getelementptr inbounds i32, ptr %.val.i.i.i.i32, i64 %37
  %39 = load i32, ptr %38, align 4
  %.not.i33 = icmp eq i32 %39, 0
  br i1 %.not.i33, label %Prs_CreateVerilogFindFon.exit39.thread, label %Prs_CreateVerilogFindFon.exit39

Prs_CreateVerilogFindFon.exit39.thread:           ; preds = %26
  %.val9.i34 = load ptr, ptr %0, align 8
  %40 = getelementptr i8, ptr %0, i64 12
  %.val10.i35 = load i32, ptr %40, align 4
  %41 = getelementptr i8, ptr %.val9.i34, i64 16
  %.val9.val.i36 = load ptr, ptr %41, align 8
  %42 = tail call ptr @Abc_NamStr(ptr noundef %.val9.val.i36, i32 noundef %.val10.i35) #28
  %.val8.i37 = load ptr, ptr %0, align 8
  %43 = getelementptr i8, ptr %.val8.i37, i64 16
  %.val8.val.i38 = load ptr, ptr %43, align 8
  %44 = tail call ptr @Abc_NamStr(ptr noundef %.val8.val.i38, i32 noundef %33) #28
  %45 = tail call i32 (ptr, ...) @printf(ptr noundef nonnull dereferenceable(1) @.str.16, ptr noundef %42, ptr noundef %44)
  br label %Prs_CreateVerilogFindFon.exit

Prs_CreateVerilogFindFon.exit39:                  ; preds = %26
  %.val30 = load ptr, ptr %27, align 8
  %46 = getelementptr i32, ptr %.val30, i64 %28
  %47 = getelementptr i8, ptr %46, i64 4
  %48 = load i32, ptr %47, align 4
  %49 = tail call i32 @Prs_CreateSlice(ptr noundef nonnull %0, i32 noundef %39, ptr nonnull poison, i32 noundef %48)
  br label %Prs_CreateVerilogFindFon.exit

default.unreachable:                              ; preds = %5
  unreachable

50:                                               ; preds = %5
  %51 = tail call i32 @Prs_CreateCatIn(ptr noundef %0, ptr noundef %1, i32 noundef %4)
  br label %Prs_CreateVerilogFindFon.exit

Prs_CreateVerilogFindFon.exit:                    ; preds = %Prs_CreateVerilogFindFon.exit39.thread, %17, %7, %3, %50, %Prs_CreateVerilogFindFon.exit39, %24
  %.0 = phi i32 [ %25, %24 ], [ %49, %Prs_CreateVerilogFindFon.exit39 ], [ %51, %50 ], [ 0, %3 ], [ %16, %7 ], [ 0, %17 ], [ 0, %Prs_CreateVerilogFindFon.exit39.thread ]
  ret i32 %.0
}